; Function Attrs: mustprogress uwtable
define noundef i64 @_ZNK5arrow7compute9ExecBatch15TotalBufferSizeEv(ptr nocapture noundef nonnull readonly align 8 dereferenceable(72) %this) local_unnamed_addr #0 align 2 {
entry:
  %0 = load ptr, ptr %this, align 8
  %_M_finish.i = getelementptr inbounds i8, ptr %this, i64 8
  %1 = load ptr, ptr %_M_finish.i, align 8
  %cmp.i.not5 = icmp eq ptr %0, %1
  br i1 %cmp.i.not5, label %for.end, label %for.body

for.body:                                         ; preds = %entry, %for.body
  %sum.07 = phi i64 [ %add, %for.body ], [ 0, %entry ]
  %__begin2.sroa.0.06 = phi ptr [ %incdec.ptr.i, %for.body ], [ %0, %entry ]
  %call6 = tail call noundef i64 @_ZNK5arrow5Datum15TotalBufferSizeEv(ptr noundef nonnull align 8 dereferenceable(24) %__begin2.sroa.0.06)
  %add = add nsw i64 %call6, %sum.07
  %incdec.ptr.i = getelementptr inbounds i8, ptr %__begin2.sroa.0.06, i64 24
  %cmp.i.not = icmp eq ptr %incdec.ptr.i, %1
  br i1 %cmp.i.not, label %for.end, label %for.body

for.end:                                          ; preds = %for.body, %entry
  %sum.0.lcssa = phi i64 [ 0, %entry ], [ %add, %for.body ]
  ret i64 %sum.0.lcssa
}